target datalayout = "e-m:e-p270:32:32-p271:32:32-p272:64:64-i64:64-i128:128-f80:128-n8:16:32:64-S128"
target triple = "x86_64-pc-linux-gnu"

%class.params_ref = type { ptr }
%class.anon = type { i8 }

@.str = private unnamed_addr constant [9 x i8] c"elim_and\00", align 1
@.str.1 = private unnamed_addr constant [15 x i8] c"blast_distinct\00", align 1
@.str.2 = private unnamed_addr constant [9 x i8] c"complete\00", align 1
@.str.3 = private unnamed_addr constant [7 x i8] c"factor\00", align 1
@.str.4 = private unnamed_addr constant [21 x i8] c"(qfnra-nlsat-tactic)\00", align 1

; Function Attrs: inlinehint mustprogress nounwind uwtable
define linkonce_odr hidden noundef ptr @_ZZ19mk_solve_eqs_tacticR11ast_managerRK10params_refENKUlRT_RT0_RT1_E_cvPFP25dependent_expr_simplifierS5_S7_S9_EIS_S2_20dependent_expr_stateEEv(ptr noundef nonnull align 1 dereferenceable(1) %0) #7 comdat align 2 {
  %2 = alloca ptr, align 8
  store ptr %0, ptr %2, align 8, !tbaa !12
  ret ptr @_ZZ19mk_solve_eqs_tacticR11ast_managerRK10params_refENUlRT_RT0_RT1_E_8__invokeIS_S2_20dependent_expr_stateEEP25dependent_expr_simplifierS5_S7_S9_
}

; Function Attrs: inlinehint mustprogress uwtable
define linkonce_odr hidden noundef ptr @_Z19mk_solve_eqs_tacticR11ast_managerRK10params_ref(ptr noundef nonnull align 8 dereferenceable(976) %0, ptr noundef nonnull align 8 dereferenceable(8) %1) #6 comdat {
  %3 = alloca ptr, align 8
  %4 = alloca ptr, align 8
  %5 = alloca %class.anon, align 1
  store ptr %0, ptr %3, align 8, !tbaa !3
  store ptr %1, ptr %4, align 8, !tbaa !8
  %6 = call noalias noundef ptr @_ZN6memory8allocateEm(i64 noundef 352)
  %7 = load ptr, ptr %3, align 8, !tbaa !3
  %8 = load ptr, ptr %4, align 8, !tbaa !8
  call void @llvm.lifetime.start.p0(i64 1, ptr %5) #3
  %9 = call noundef ptr @_ZZ19mk_solve_eqs_tacticR11ast_managerRK10params_refENKUlRT_RT0_RT1_E_cvPFP25dependent_expr_simplifierS5_S7_S9_EIS_S2_20dependent_expr_stateEEv(ptr noundef nonnull align 1 dereferenceable(1) %5) #3
  call void @_ZN27dependent_expr_state_tacticC2ER11ast_managerRK10params_refPFP25dependent_expr_simplifierS1_S4_R20dependent_expr_stateE(ptr noundef nonnull align 8 dereferenceable(345) %6, ptr noundef nonnull align 8 dereferenceable(976) %7, ptr noundef nonnull align 8 dereferenceable(8) %8, ptr noundef %9)
  call void @llvm.lifetime.end.p0(i64 1, ptr %5) #3
  ret ptr %6
}

; Function Attrs: mustprogress uwtable
define hidden noundef ptr @_Z21mk_qfnra_nlsat_tacticR11ast_managerRK10params_ref(ptr noundef nonnull align 8 dereferenceable(976) %0, ptr noundef nonnull align 8 dereferenceable(8) %1) #4 personality ptr @__gxx_personality_v0 {
  %3 = alloca ptr, align 8
  %4 = alloca ptr, align 8
  %5 = alloca %class.params_ref, align 8
  %6 = alloca ptr, align 8
  %7 = alloca i32, align 4
  %8 = alloca %class.params_ref, align 8
  %9 = alloca ptr, align 8
  store ptr %0, ptr %3, align 8, !tbaa !3
  store ptr %1, ptr %4, align 8, !tbaa !8
  call void @llvm.lifetime.start.p0(i64 8, ptr %5) #3
  %10 = load ptr, ptr %4, align 8, !tbaa !8
  call void @_ZN10params_refC1ERKS_(ptr noundef nonnull align 8 dereferenceable(8) %5, ptr noundef nonnull align 8 dereferenceable(8) %10)
  invoke void @_ZN10params_ref8set_boolEPKcb(ptr noundef nonnull align 8 dereferenceable(8) %5, ptr noundef @.str, i1 noundef zeroext true)
          to label %11 unwind label %24

11:                                               ; preds = %2
  invoke void @_ZN10params_ref8set_boolEPKcb(ptr noundef nonnull align 8 dereferenceable(8) %5, ptr noundef @.str.1, i1 noundef zeroext true)
          to label %12 unwind label %24

12:                                               ; preds = %11
  call void @llvm.lifetime.start.p0(i64 8, ptr %8) #3
  %13 = load ptr, ptr %4, align 8, !tbaa !8
  invoke void @_ZN10params_refC1ERKS_(ptr noundef nonnull align 8 dereferenceable(8) %8, ptr noundef nonnull align 8 dereferenceable(8) %13)
          to label %14 unwind label %28

14:                                               ; preds = %12
  invoke void @_ZN10params_ref8set_boolEPKcb(ptr noundef nonnull align 8 dereferenceable(8) %8, ptr noundef @.str.2, i1 noundef zeroext false)
          to label %15 unwind label %32

15:                                               ; preds = %14
  call void @llvm.lifetime.start.p0(i64 8, ptr %9) #3
  %16 = load ptr, ptr %4, align 8, !tbaa !8
  %17 = invoke noundef zeroext i1 @_ZNK10params_ref8get_boolEPKcb(ptr noundef nonnull align 8 dereferenceable(8) %16, ptr noundef @.str.3, i1 noundef zeroext true)
          to label %18 unwind label %36

18:                                               ; preds = %15
  br i1 %17, label %19, label %40

19:                                               ; preds = %18
  %20 = load ptr, ptr %3, align 8, !tbaa !3
  %21 = load ptr, ptr %4, align 8, !tbaa !8
  %22 = invoke noundef ptr @_Z16mk_factor_tacticR11ast_managerRK10params_ref(ptr noundef nonnull align 8 dereferenceable(976) %20, ptr noundef nonnull align 8 dereferenceable(8) %21)
          to label %23 unwind label %36

23:                                               ; preds = %19
  store ptr %22, ptr %9, align 8, !tbaa !10
  br label %43

24:                                               ; preds = %11, %2
  %25 = landingpad { ptr, i32 }
          cleanup
  %26 = extractvalue { ptr, i32 } %25, 0
  store ptr %26, ptr %6, align 8
  %27 = extractvalue { ptr, i32 } %25, 1
  store i32 %27, ptr %7, align 4
  br label %119

28:                                               ; preds = %12
  %29 = landingpad { ptr, i32 }
          cleanup
  %30 = extractvalue { ptr, i32 } %29, 0
  store ptr %30, ptr %6, align 8
  %31 = extractvalue { ptr, i32 } %29, 1
  store i32 %31, ptr %7, align 4
  br label %118

32:                                               ; preds = %14
  %33 = landingpad { ptr, i32 }
          cleanup
  %34 = extractvalue { ptr, i32 } %33, 0
  store ptr %34, ptr %6, align 8
  %35 = extractvalue { ptr, i32 } %33, 1
  store i32 %35, ptr %7, align 4
  br label %117

36:                                               ; preds = %114, %112, %108, %106, %102, %98, %96, %92, %90, %86, %81, %79, %77, %73, %69, %65, %61, %57, %55, %51, %49, %45, %43, %40, %19, %15
  %37 = landingpad { ptr, i32 }
          cleanup
  %38 = extractvalue { ptr, i32 } %37, 0
  store ptr %38, ptr %6, align 8
  %39 = extractvalue { ptr, i32 } %37, 1
  store i32 %39, ptr %7, align 4
  call void @llvm.lifetime.end.p0(i64 8, ptr %9) #3
  br label %117

40:                                               ; preds = %18
  %41 = invoke noundef ptr @_Z14mk_skip_tacticv()
          to label %42 unwind label %36

42:                                               ; preds = %40
  store ptr %41, ptr %9, align 8, !tbaa !10
  br label %43

43:                                               ; preds = %42, %23
  %44 = invoke noundef ptr @_Z24mk_report_verbose_tacticPKcj(ptr noundef @.str.4, i32 noundef 10)
          to label %45 unwind label %36

45:                                               ; preds = %43
  %46 = load ptr, ptr %3, align 8, !tbaa !3
  %47 = load ptr, ptr %4, align 8, !tbaa !8
  %48 = invoke noundef ptr @_Z18mk_simplify_tacticR11ast_managerRK10params_ref(ptr noundef nonnull align 8 dereferenceable(976) %46, ptr noundef nonnull align 8 dereferenceable(8) %47)
          to label %49 unwind label %36

49:                                               ; preds = %45
  %50 = invoke noundef ptr @_Z12using_paramsP6tacticRK10params_ref(ptr noundef %48, ptr noundef nonnull align 8 dereferenceable(8) %5)
          to label %51 unwind label %36

51:                                               ; preds = %49
  %52 = load ptr, ptr %3, align 8, !tbaa !3
  %53 = load ptr, ptr %4, align 8, !tbaa !8
  %54 = invoke noundef ptr @_Z22mk_purify_arith_tacticR11ast_managerRK10params_ref(ptr noundef nonnull align 8 dereferenceable(976) %52, ptr noundef nonnull align 8 dereferenceable(8) %53)
          to label %55 unwind label %36

55:                                               ; preds = %51
  %56 = invoke noundef ptr @_Z12using_paramsP6tacticRK10params_ref(ptr noundef %54, ptr noundef nonnull align 8 dereferenceable(8) %8)
          to label %57 unwind label %36

57:                                               ; preds = %55
  %58 = load ptr, ptr %3, align 8, !tbaa !3
  %59 = load ptr, ptr %4, align 8, !tbaa !8
  %60 = invoke noundef ptr @_Z26mk_propagate_values_tacticR11ast_managerRK10params_ref(ptr noundef nonnull align 8 dereferenceable(976) %58, ptr noundef nonnull align 8 dereferenceable(8) %59)
          to label %61 unwind label %36

61:                                               ; preds = %57
  %62 = load ptr, ptr %3, align 8, !tbaa !3
  %63 = load ptr, ptr %4, align 8, !tbaa !8
  %64 = invoke noundef ptr @_Z19mk_solve_eqs_tacticR11ast_managerRK10params_ref(ptr noundef nonnull align 8 dereferenceable(976) %62, ptr noundef nonnull align 8 dereferenceable(8) %63)
          to label %65 unwind label %36

65:                                               ; preds = %61
  %66 = load ptr, ptr %3, align 8, !tbaa !3
  %67 = load ptr, ptr %4, align 8, !tbaa !8
  %68 = invoke noundef ptr @_Z22mk_elim_uncnstr_tacticR11ast_managerRK10params_ref(ptr noundef nonnull align 8 dereferenceable(976) %66, ptr noundef nonnull align 8 dereferenceable(8) %67)
          to label %69 unwind label %36

69:                                               ; preds = %65
  %70 = load ptr, ptr %3, align 8, !tbaa !3
  %71 = load ptr, ptr %4, align 8, !tbaa !8
  %72 = invoke noundef ptr @_Z23mk_elim_term_ite_tacticR11ast_managerRK10params_ref(ptr noundef nonnull align 8 dereferenceable(976) %70, ptr noundef nonnull align 8 dereferenceable(8) %71)
          to label %73 unwind label %36

73:                                               ; preds = %69
  %74 = load ptr, ptr %3, align 8, !tbaa !3
  %75 = load ptr, ptr %4, align 8, !tbaa !8
  %76 = invoke noundef ptr @_Z22mk_purify_arith_tacticR11ast_managerRK10params_ref(ptr noundef nonnull align 8 dereferenceable(976) %74, ptr noundef nonnull align 8 dereferenceable(8) %75)
          to label %77 unwind label %36

77:                                               ; preds = %73
  %78 = invoke noundef ptr @_Z12using_paramsP6tacticRK10params_ref(ptr noundef %76, ptr noundef nonnull align 8 dereferenceable(8) %8)
          to label %79 unwind label %36

79:                                               ; preds = %77
  %80 = invoke noundef ptr @_Z8and_thenP6tacticS0_S0_S0_S0_S0_S0_(ptr noundef %50, ptr noundef %56, ptr noundef %60, ptr noundef %64, ptr noundef %68, ptr noundef %72, ptr noundef %78)
          to label %81 unwind label %36

81:                                               ; preds = %79
  %82 = load ptr, ptr %9, align 8, !tbaa !10
  %83 = load ptr, ptr %3, align 8, !tbaa !3
  %84 = load ptr, ptr %4, align 8, !tbaa !8
  %85 = invoke noundef ptr @_Z19mk_solve_eqs_tacticR11ast_managerRK10params_ref(ptr noundef nonnull align 8 dereferenceable(976) %83, ptr noundef nonnull align 8 dereferenceable(8) %84)
          to label %86 unwind label %36

86:                                               ; preds = %81
  %87 = load ptr, ptr %3, align 8, !tbaa !3
  %88 = load ptr, ptr %4, align 8, !tbaa !8
  %89 = invoke noundef ptr @_Z22mk_purify_arith_tacticR11ast_managerRK10params_ref(ptr noundef nonnull align 8 dereferenceable(976) %87, ptr noundef nonnull align 8 dereferenceable(8) %88)
          to label %90 unwind label %36

90:                                               ; preds = %86
  %91 = invoke noundef ptr @_Z12using_paramsP6tacticRK10params_ref(ptr noundef %89, ptr noundef nonnull align 8 dereferenceable(8) %8)
          to label %92 unwind label %36

92:                                               ; preds = %90
  %93 = load ptr, ptr %3, align 8, !tbaa !3
  %94 = load ptr, ptr %4, align 8, !tbaa !8
  %95 = invoke noundef ptr @_Z18mk_simplify_tacticR11ast_managerRK10params_ref(ptr noundef nonnull align 8 dereferenceable(976) %93, ptr noundef nonnull align 8 dereferenceable(8) %94)
          to label %96 unwind label %36

96:                                               ; preds = %92
  %97 = invoke noundef ptr @_Z12using_paramsP6tacticRK10params_ref(ptr noundef %95, ptr noundef nonnull align 8 dereferenceable(8) %5)
          to label %98 unwind label %36

98:                                               ; preds = %96
  %99 = load ptr, ptr %3, align 8, !tbaa !3
  %100 = load ptr, ptr %4, align 8, !tbaa !8
  %101 = invoke noundef ptr @_Z26mk_tseitin_cnf_core_tacticR11ast_managerRK10params_ref(ptr noundef nonnull align 8 dereferenceable(976) %99, ptr noundef nonnull align 8 dereferenceable(8) %100)
          to label %102 unwind label %36

102:                                              ; preds = %98
  %103 = load ptr, ptr %3, align 8, !tbaa !3
  %104 = load ptr, ptr %4, align 8, !tbaa !8
  %105 = invoke noundef ptr @_Z18mk_simplify_tacticR11ast_managerRK10params_ref(ptr noundef nonnull align 8 dereferenceable(976) %103, ptr noundef nonnull align 8 dereferenceable(8) %104)
          to label %106 unwind label %36

106:                                              ; preds = %102
  %107 = invoke noundef ptr @_Z12using_paramsP6tacticRK10params_ref(ptr noundef %105, ptr noundef nonnull align 8 dereferenceable(8) %5)
          to label %108 unwind label %36

108:                                              ; preds = %106
  %109 = load ptr, ptr %3, align 8, !tbaa !3
  %110 = load ptr, ptr %4, align 8, !tbaa !8
  %111 = invoke noundef ptr @_Z15mk_nlsat_tacticR11ast_managerRK10params_ref(ptr noundef nonnull align 8 dereferenceable(976) %109, ptr noundef nonnull align 8 dereferenceable(8) %110)
          to label %112 unwind label %36

112:                                              ; preds = %108
  %113 = invoke noundef ptr @_Z8and_thenP6tacticS0_S0_S0_S0_S0_S0_(ptr noundef %82, ptr noundef %85, ptr noundef %91, ptr noundef %97, ptr noundef %101, ptr noundef %107, ptr noundef %111)
          to label %114 unwind label %36

114:                                              ; preds = %112
  %115 = invoke noundef ptr @_Z8and_thenP6tacticS0_S0_(ptr noundef %44, ptr noundef %80, ptr noundef %113)
          to label %116 unwind label %36

116:                                              ; preds = %114
  call void @llvm.lifetime.end.p0(i64 8, ptr %9) #3
  call void @_ZN10params_refD1Ev(ptr noundef nonnull align 8 dereferenceable(8) %8) #3
  call void @llvm.lifetime.end.p0(i64 8, ptr %8) #3
  call void @_ZN10params_refD1Ev(ptr noundef nonnull align 8 dereferenceable(8) %5) #3
  call void @llvm.lifetime.end.p0(i64 8, ptr %5) #3
  ret ptr %115

117:                                              ; preds = %36, %32
  call void @_ZN10params_refD1Ev(ptr noundef nonnull align 8 dereferenceable(8) %8) #3
  br label %118

118:                                              ; preds = %117, %28
  call void @llvm.lifetime.end.p0(i64 8, ptr %8) #3
  br label %119

119:                                              ; preds = %118, %24
  call void @_ZN10params_refD1Ev(ptr noundef nonnull align 8 dereferenceable(8) %5) #3
  call void @llvm.lifetime.end.p0(i64 8, ptr %5) #3
  br label %120

120:                                              ; preds = %119
  %121 = load ptr, ptr %6, align 8
  %122 = load i32, ptr %7, align 4
  %123 = insertvalue { ptr, i32 } poison, ptr %121, 0
  %124 = insertvalue { ptr, i32 } %123, i32 %122, 1
  resume { ptr, i32 } %124
}