; Function Attrs: mustprogress uwtable
define hidden noundef ptr @_Z21mk_qfnra_nlsat_tacticR11ast_managerRK10params_ref(ptr noundef nonnull align 8 dereferenceable(976) %0, ptr noundef nonnull align 8 dereferenceable(8) %1) local_unnamed_addr #3 personality ptr @__gxx_personality_v0 {
  %3 = alloca %class.params_ref, align 8
  %4 = alloca %class.params_ref, align 8
  call void @llvm.lifetime.start.p0(i64 8, ptr nonnull %3) #22
  call void @_ZN10params_refC1ERKS_(ptr noundef nonnull align 8 dereferenceable(8) %3, ptr noundef nonnull align 8 dereferenceable(8) %1)
  invoke void @_ZN10params_ref8set_boolEPKcb(ptr noundef nonnull align 8 dereferenceable(8) %3, ptr noundef nonnull @.str, i1 noundef zeroext true)
          to label %5 unwind label %13

5:                                                ; preds = %2
  invoke void @_ZN10params_ref8set_boolEPKcb(ptr noundef nonnull align 8 dereferenceable(8) %3, ptr noundef nonnull @.str.1, i1 noundef zeroext true)
          to label %6 unwind label %13

6:                                                ; preds = %5
  call void @llvm.lifetime.start.p0(i64 8, ptr nonnull %4) #22
  invoke void @_ZN10params_refC1ERKS_(ptr noundef nonnull align 8 dereferenceable(8) %4, ptr noundef nonnull align 8 dereferenceable(8) %1)
          to label %7 unwind label %15

7:                                                ; preds = %6
  invoke void @_ZN10params_ref8set_boolEPKcb(ptr noundef nonnull align 8 dereferenceable(8) %4, ptr noundef nonnull @.str.2, i1 noundef zeroext false)
          to label %8 unwind label %17

8:                                                ; preds = %7
  %9 = invoke noundef zeroext i1 @_ZNK10params_ref8get_boolEPKcb(ptr noundef nonnull align 8 dereferenceable(8) %1, ptr noundef nonnull @.str.3, i1 noundef zeroext true)
          to label %10 unwind label %19

10:                                               ; preds = %8
  br i1 %9, label %11, label %21

11:                                               ; preds = %10
  %12 = invoke noundef ptr @_Z16mk_factor_tacticR11ast_managerRK10params_ref(ptr noundef nonnull align 8 dereferenceable(976) %0, ptr noundef nonnull align 8 dereferenceable(8) %1)
          to label %23 unwind label %19

13:                                               ; preds = %5, %2
  %14 = landingpad { ptr, i32 }
          cleanup
  br label %70

15:                                               ; preds = %6
  %16 = landingpad { ptr, i32 }
          cleanup
  br label %69

17:                                               ; preds = %7
  %18 = landingpad { ptr, i32 }
          cleanup
  br label %68

19:                                               ; preds = %.noexc41, %46, %.noexc, %35, %65, %63, %61, %59, %57, %55, %53, %51, %49, %_Z19mk_solve_eqs_tacticR11ast_managerRK10params_ref.exit43, %44, %42, %40, %38, %_Z19mk_solve_eqs_tacticR11ast_managerRK10params_ref.exit, %33, %31, %29, %27, %25, %23, %21, %11, %8
  %20 = landingpad { ptr, i32 }
          cleanup
  br label %68

21:                                               ; preds = %10
  %22 = invoke noundef ptr @_Z14mk_skip_tacticv()
          to label %23 unwind label %19

23:                                               ; preds = %21, %11
  %.0 = phi ptr [ %12, %11 ], [ %22, %21 ]
  %24 = invoke noundef ptr @_Z24mk_report_verbose_tacticPKcj(ptr noundef nonnull @.str.4, i32 noundef 10)
          to label %25 unwind label %19

25:                                               ; preds = %23
  %26 = invoke noundef ptr @_Z18mk_simplify_tacticR11ast_managerRK10params_ref(ptr noundef nonnull align 8 dereferenceable(976) %0, ptr noundef nonnull align 8 dereferenceable(8) %1)
          to label %27 unwind label %19

27:                                               ; preds = %25
  %28 = invoke noundef ptr @_Z12using_paramsP6tacticRK10params_ref(ptr noundef %26, ptr noundef nonnull align 8 dereferenceable(8) %3)
          to label %29 unwind label %19

29:                                               ; preds = %27
  %30 = invoke noundef ptr @_Z22mk_purify_arith_tacticR11ast_managerRK10params_ref(ptr noundef nonnull align 8 dereferenceable(976) %0, ptr noundef nonnull align 8 dereferenceable(8) %1)
          to label %31 unwind label %19

31:                                               ; preds = %29
  %32 = invoke noundef ptr @_Z12using_paramsP6tacticRK10params_ref(ptr noundef %30, ptr noundef nonnull align 8 dereferenceable(8) %4)
          to label %33 unwind label %19

33:                                               ; preds = %31
  %34 = invoke noundef ptr @_Z26mk_propagate_values_tacticR11ast_managerRK10params_ref(ptr noundef nonnull align 8 dereferenceable(976) %0, ptr noundef nonnull align 8 dereferenceable(8) %1)
          to label %35 unwind label %19

35:                                               ; preds = %33
  %36 = invoke noalias noundef ptr @_ZN6memory8allocateEm(i64 noundef 352)
          to label %.noexc unwind label %19

.noexc:                                           ; preds = %35
  invoke void @_ZN27dependent_expr_state_tacticC2ER11ast_managerRK10params_refPFP25dependent_expr_simplifierS1_S4_R20dependent_expr_stateE(ptr noundef nonnull align 8 dereferenceable(345) %36, ptr noundef nonnull align 8 dereferenceable(976) %0, ptr noundef nonnull align 8 dereferenceable(8) %1, ptr noundef nonnull @_ZZ19mk_solve_eqs_tacticR11ast_managerRK10params_refENUlRT_RT0_RT1_E_8__invokeIS_S2_20dependent_expr_stateEEP25dependent_expr_simplifierS5_S7_S9_)
          to label %_Z19mk_solve_eqs_tacticR11ast_managerRK10params_ref.exit unwind label %19

_Z19mk_solve_eqs_tacticR11ast_managerRK10params_ref.exit: ; preds = %.noexc
  %37 = invoke noundef ptr @_Z22mk_elim_uncnstr_tacticR11ast_managerRK10params_ref(ptr noundef nonnull align 8 dereferenceable(976) %0, ptr noundef nonnull align 8 dereferenceable(8) %1)
          to label %38 unwind label %19

38:                                               ; preds = %_Z19mk_solve_eqs_tacticR11ast_managerRK10params_ref.exit
  %39 = invoke noundef ptr @_Z23mk_elim_term_ite_tacticR11ast_managerRK10params_ref(ptr noundef nonnull align 8 dereferenceable(976) %0, ptr noundef nonnull align 8 dereferenceable(8) %1)
          to label %40 unwind label %19

40:                                               ; preds = %38
  %41 = invoke noundef ptr @_Z22mk_purify_arith_tacticR11ast_managerRK10params_ref(ptr noundef nonnull align 8 dereferenceable(976) %0, ptr noundef nonnull align 8 dereferenceable(8) %1)
          to label %42 unwind label %19

42:                                               ; preds = %40
  %43 = invoke noundef ptr @_Z12using_paramsP6tacticRK10params_ref(ptr noundef %41, ptr noundef nonnull align 8 dereferenceable(8) %4)
          to label %44 unwind label %19

44:                                               ; preds = %42
  %45 = invoke noundef ptr @_Z8and_thenP6tacticS0_S0_S0_S0_S0_S0_(ptr noundef %28, ptr noundef %32, ptr noundef %34, ptr noundef nonnull %36, ptr noundef %37, ptr noundef %39, ptr noundef %43)
          to label %46 unwind label %19

46:                                               ; preds = %44
  %47 = invoke noalias noundef ptr @_ZN6memory8allocateEm(i64 noundef 352)
          to label %.noexc41 unwind label %19

.noexc41:                                         ; preds = %46
  invoke void @_ZN27dependent_expr_state_tacticC2ER11ast_managerRK10params_refPFP25dependent_expr_simplifierS1_S4_R20dependent_expr_stateE(ptr noundef nonnull align 8 dereferenceable(345) %47, ptr noundef nonnull align 8 dereferenceable(976) %0, ptr noundef nonnull align 8 dereferenceable(8) %1, ptr noundef nonnull @_ZZ19mk_solve_eqs_tacticR11ast_managerRK10params_refENUlRT_RT0_RT1_E_8__invokeIS_S2_20dependent_expr_stateEEP25dependent_expr_simplifierS5_S7_S9_)
          to label %_Z19mk_solve_eqs_tacticR11ast_managerRK10params_ref.exit43 unwind label %19

_Z19mk_solve_eqs_tacticR11ast_managerRK10params_ref.exit43: ; preds = %.noexc41
  %48 = invoke noundef ptr @_Z22mk_purify_arith_tacticR11ast_managerRK10params_ref(ptr noundef nonnull align 8 dereferenceable(976) %0, ptr noundef nonnull align 8 dereferenceable(8) %1)
          to label %49 unwind label %19

49:                                               ; preds = %_Z19mk_solve_eqs_tacticR11ast_managerRK10params_ref.exit43
  %50 = invoke noundef ptr @_Z12using_paramsP6tacticRK10params_ref(ptr noundef %48, ptr noundef nonnull align 8 dereferenceable(8) %4)
          to label %51 unwind label %19

51:                                               ; preds = %49
  %52 = invoke noundef ptr @_Z18mk_simplify_tacticR11ast_managerRK10params_ref(ptr noundef nonnull align 8 dereferenceable(976) %0, ptr noundef nonnull align 8 dereferenceable(8) %1)
          to label %53 unwind label %19

53:                                               ; preds = %51
  %54 = invoke noundef ptr @_Z12using_paramsP6tacticRK10params_ref(ptr noundef %52, ptr noundef nonnull align 8 dereferenceable(8) %3)
          to label %55 unwind label %19

55:                                               ; preds = %53
  %56 = invoke noundef ptr @_Z26mk_tseitin_cnf_core_tacticR11ast_managerRK10params_ref(ptr noundef nonnull align 8 dereferenceable(976) %0, ptr noundef nonnull align 8 dereferenceable(8) %1)
          to label %57 unwind label %19

57:                                               ; preds = %55
  %58 = invoke noundef ptr @_Z18mk_simplify_tacticR11ast_managerRK10params_ref(ptr noundef nonnull align 8 dereferenceable(976) %0, ptr noundef nonnull align 8 dereferenceable(8) %1)
          to label %59 unwind label %19

59:                                               ; preds = %57
  %60 = invoke noundef ptr @_Z12using_paramsP6tacticRK10params_ref(ptr noundef %58, ptr noundef nonnull align 8 dereferenceable(8) %3)
          to label %61 unwind label %19

61:                                               ; preds = %59
  %62 = invoke noundef ptr @_Z15mk_nlsat_tacticR11ast_managerRK10params_ref(ptr noundef nonnull align 8 dereferenceable(976) %0, ptr noundef nonnull align 8 dereferenceable(8) %1)
          to label %63 unwind label %19

63:                                               ; preds = %61
  %64 = invoke noundef ptr @_Z8and_thenP6tacticS0_S0_S0_S0_S0_S0_(ptr noundef %.0, ptr noundef nonnull %47, ptr noundef %50, ptr noundef %54, ptr noundef %56, ptr noundef %60, ptr noundef %62)
          to label %65 unwind label %19

65:                                               ; preds = %63
  %66 = invoke noundef ptr @_Z8and_thenP6tacticS0_S0_(ptr noundef %24, ptr noundef %45, ptr noundef %64)
          to label %67 unwind label %19

67:                                               ; preds = %65
  call void @_ZN10params_refD1Ev(ptr noundef nonnull align 8 dereferenceable(8) %4) #22
  call void @llvm.lifetime.end.p0(i64 8, ptr nonnull %4) #22
  call void @_ZN10params_refD1Ev(ptr noundef nonnull align 8 dereferenceable(8) %3) #22
  call void @llvm.lifetime.end.p0(i64 8, ptr nonnull %3) #22
  ret ptr %66

68:                                               ; preds = %19, %17
  %.pn = phi { ptr, i32 } [ %20, %19 ], [ %18, %17 ]
  call void @_ZN10params_refD1Ev(ptr noundef nonnull align 8 dereferenceable(8) %4) #22
  br label %69

69:                                               ; preds = %68, %15
  %.pn.pn = phi { ptr, i32 } [ %.pn, %68 ], [ %16, %15 ]
  call void @llvm.lifetime.end.p0(i64 8, ptr nonnull %4) #22
  br label %70

70:                                               ; preds = %69, %13
  %.pn.pn.pn = phi { ptr, i32 } [ %.pn.pn, %69 ], [ %14, %13 ]
  call void @_ZN10params_refD1Ev(ptr noundef nonnull align 8 dereferenceable(8) %3) #22
  call void @llvm.lifetime.end.p0(i64 8, ptr nonnull %3) #22
  resume { ptr, i32 } %.pn.pn.pn
}